target datalayout = "e-m:e-p270:32:32-p271:32:32-p272:64:64-i64:64-i128:128-f80:128-n8:16:32:64-S128"
target triple = "x86_64-pc-linux-gnu"

@.str = private unnamed_addr constant [37 x i8] c"../openssl/test/pem_read_depr_test.c\00", align 1
@datadir = internal global ptr null, align 8
@.str.12 = private unnamed_addr constant [7 x i8] c"infile\00", align 1
@.str.14 = private unnamed_addr constant [11 x i8] c"paramsfile\00", align 1
@.str.15 = private unnamed_addr constant [2 x i8] c"r\00", align 1
@.str.17 = private unnamed_addr constant [14 x i8] c"dsaparams.pem\00", align 1
@.str.18 = private unnamed_addr constant [4 x i8] c"dsa\00", align 1

; Function Attrs: nounwind uwtable
define internal ptr @getfile(ptr noundef %0) #0 {
  %2 = alloca ptr, align 8
  %3 = alloca ptr, align 8
  %4 = alloca ptr, align 8
  store ptr %0, ptr %2, align 8, !tbaa !4
  call void @llvm.lifetime.start.p0(i64 8, ptr %3) #3
  %5 = load ptr, ptr @datadir, align 8, !tbaa !4
  %6 = load ptr, ptr %2, align 8, !tbaa !4
  %7 = call ptr @test_mk_file_path(ptr noundef %5, ptr noundef %6)
  store ptr %7, ptr %3, align 8, !tbaa !4
  call void @llvm.lifetime.start.p0(i64 8, ptr %4) #3
  store ptr null, ptr %4, align 8, !tbaa !11
  %8 = load ptr, ptr %3, align 8, !tbaa !4
  %9 = call i32 @test_ptr(ptr noundef @.str, i32 noundef 31, ptr noundef @.str.14, ptr noundef %8)
  %10 = icmp ne i32 %9, 0
  br i1 %10, label %12, label %11

11:                                               ; preds = %1
  br label %15

12:                                               ; preds = %1
  %13 = load ptr, ptr %3, align 8, !tbaa !4
  %14 = call ptr @BIO_new_file(ptr noundef %13, ptr noundef @.str.15)
  store ptr %14, ptr %4, align 8, !tbaa !11
  br label %15

15:                                               ; preds = %12, %11
  %16 = load ptr, ptr %3, align 8, !tbaa !4
  call void @CRYPTO_free(ptr noundef %16, ptr noundef @.str, i32 noundef 36)
  %17 = load ptr, ptr %4, align 8, !tbaa !11
  call void @llvm.lifetime.end.p0(i64 8, ptr %4) #3
  call void @llvm.lifetime.end.p0(i64 8, ptr %3) #3
  ret ptr %17
}

; Function Attrs: nounwind uwtable
define internal i32 @test_read_dsa_params() #0 {
  %1 = alloca i32, align 4
  %2 = alloca ptr, align 8
  %3 = alloca ptr, align 8
  call void @llvm.lifetime.start.p0(i64 4, ptr %1) #3
  store i32 0, ptr %1, align 4, !tbaa !9
  call void @llvm.lifetime.start.p0(i64 8, ptr %2) #3
  %4 = call ptr @getfile(ptr noundef @.str.17)
  store ptr %4, ptr %2, align 8, !tbaa !11
  call void @llvm.lifetime.start.p0(i64 8, ptr %3) #3
  store ptr null, ptr %3, align 8, !tbaa !15
  %5 = load ptr, ptr %2, align 8, !tbaa !11
  %6 = call i32 @test_ptr(ptr noundef @.str, i32 noundef 91, ptr noundef @.str.12, ptr noundef %5)
  %7 = icmp ne i32 %6, 0
  br i1 %7, label %9, label %8

8:                                                ; preds = %0
  br label %17

9:                                                ; preds = %0
  %10 = load ptr, ptr %2, align 8, !tbaa !11
  %11 = call ptr @PEM_read_bio_DSAparams(ptr noundef %10, ptr noundef null, ptr noundef null, ptr noundef null)
  store ptr %11, ptr %3, align 8, !tbaa !15
  %12 = load ptr, ptr %3, align 8, !tbaa !15
  %13 = call i32 @test_ptr(ptr noundef @.str, i32 noundef 95, ptr noundef @.str.18, ptr noundef %12)
  %14 = icmp ne i32 %13, 0
  br i1 %14, label %16, label %15

15:                                               ; preds = %9
  br label %17

16:                                               ; preds = %9
  store i32 1, ptr %1, align 4, !tbaa !9
  br label %17

17:                                               ; preds = %16, %15, %8
  %18 = load ptr, ptr %2, align 8, !tbaa !11
  %19 = call i32 @BIO_free(ptr noundef %18)
  %20 = load ptr, ptr %3, align 8, !tbaa !15
  call void @DSA_free(ptr noundef %20)
  %21 = load i32, ptr %1, align 4, !tbaa !9
  call void @llvm.lifetime.end.p0(i64 8, ptr %3) #3
  call void @llvm.lifetime.end.p0(i64 8, ptr %2) #3
  call void @llvm.lifetime.end.p0(i64 4, ptr %1) #3
  ret i32 %21
}